target datalayout = "e-m:e-p270:32:32-p271:32:32-p272:64:64-i64:64-i128:128-f80:128-n8:16:32:64-S128"
target triple = "x86_64-pc-linux-gnu"

%"class.open_spiel::TabularPolicy" = type { %"class.open_spiel::Policy", %"class.std::unordered_map" }
%"class.open_spiel::Policy" = type { ptr }
%"class.std::unordered_map" = type { %"class.std::_Hashtable" }
%"class.std::_Hashtable" = type { ptr, i64, %"struct.std::__detail::_Hash_node_base", i64, %"struct.std::__detail::_Prime_rehash_policy", ptr }
%"struct.std::__detail::_Hash_node_base" = type { ptr }
%"struct.std::__detail::_Prime_rehash_policy" = type { float, i64 }
%"class.std::gamma_distribution" = type { %"struct.std::gamma_distribution<>::param_type", %"class.std::normal_distribution" }
%"struct.std::gamma_distribution<>::param_type" = type { double, double, double, double }
%"class.std::normal_distribution" = type <{ %"struct.std::normal_distribution<>::param_type", double, i8, [7 x i8] }>
%"struct.std::normal_distribution<>::param_type" = type { double, double }

; Function Attrs: mustprogress nounwind uwtable
define linkonce_odr void @_ZNSt19normal_distributionIdE10param_typeC2Edd(ptr noundef nonnull align 8 dereferenceable(16) %0, double noundef %1, double noundef %2) unnamed_addr #5 comdat align 2 {
  %4 = alloca ptr, align 8
  %5 = alloca double, align 8
  %6 = alloca double, align 8
  store ptr %0, ptr %4, align 8
  store double %1, ptr %5, align 8
  store double %2, ptr %6, align 8
  %7 = load ptr, ptr %4, align 8
  %8 = getelementptr inbounds nuw %"struct.std::normal_distribution<>::param_type", ptr %7, i32 0, i32 0
  %9 = load double, ptr %5, align 8
  store double %9, ptr %8, align 8
  %10 = getelementptr inbounds nuw %"struct.std::normal_distribution<>::param_type", ptr %7, i32 0, i32 1
  %11 = load double, ptr %6, align 8
  store double %11, ptr %10, align 8
  br label %12

12:                                               ; preds = %3
  br label %13

13:                                               ; preds = %12
  ret void
}

; Function Attrs: mustprogress uwtable
define linkonce_odr void @_ZNSt19normal_distributionIdEC2Edd(ptr noundef nonnull align 8 dereferenceable(25) %0, double noundef %1, double noundef %2) unnamed_addr #4 comdat align 2 {
  %4 = alloca ptr, align 8
  %5 = alloca double, align 8
  %6 = alloca double, align 8
  store ptr %0, ptr %4, align 8
  store double %1, ptr %5, align 8
  store double %2, ptr %6, align 8
  %7 = load ptr, ptr %4, align 8
  %8 = getelementptr inbounds nuw %"class.std::normal_distribution", ptr %7, i32 0, i32 0
  %9 = load double, ptr %5, align 8
  %10 = load double, ptr %6, align 8
  call void @_ZNSt19normal_distributionIdE10param_typeC2Edd(ptr noundef nonnull align 8 dereferenceable(16) %8, double noundef %9, double noundef %10)
  %11 = getelementptr inbounds nuw %"class.std::normal_distribution", ptr %7, i32 0, i32 1
  store double 0.000000e+00, ptr %11, align 8
  %12 = getelementptr inbounds nuw %"class.std::normal_distribution", ptr %7, i32 0, i32 2
  store i8 0, ptr %12, align 8
  ret void
}

; Function Attrs: mustprogress nounwind uwtable
define linkonce_odr void @_ZNSt18gamma_distributionIdE10param_type13_M_initializeEv(ptr noundef nonnull align 8 dereferenceable(32) %0) #5 comdat align 2 {
  %2 = alloca ptr, align 8
  %3 = alloca double, align 8
  store ptr %0, ptr %2, align 8
  %4 = load ptr, ptr %2, align 8
  %5 = getelementptr inbounds nuw %"struct.std::gamma_distribution<>::param_type", ptr %4, i32 0, i32 0
  %6 = load double, ptr %5, align 8
  %7 = fcmp olt double %6, 1.000000e+00
  br i1 %7, label %8, label %12

8:                                                ; preds = %1
  %9 = getelementptr inbounds nuw %"struct.std::gamma_distribution<>::param_type", ptr %4, i32 0, i32 0
  %10 = load double, ptr %9, align 8
  %11 = fadd double %10, 1.000000e+00
  br label %15

12:                                               ; preds = %1
  %13 = getelementptr inbounds nuw %"struct.std::gamma_distribution<>::param_type", ptr %4, i32 0, i32 0
  %14 = load double, ptr %13, align 8
  br label %15

15:                                               ; preds = %12, %8
  %16 = phi double [ %11, %8 ], [ %14, %12 ]
  %17 = getelementptr inbounds nuw %"struct.std::gamma_distribution<>::param_type", ptr %4, i32 0, i32 2
  store double %16, ptr %17, align 8
  %18 = getelementptr inbounds nuw %"struct.std::gamma_distribution<>::param_type", ptr %4, i32 0, i32 2
  %19 = load double, ptr %18, align 8
  %20 = fsub double %19, 0x3FD5555555555555
  store double %20, ptr %3, align 8
  %21 = load double, ptr %3, align 8
  %22 = fmul double 9.000000e+00, %21
  %23 = call double @sqrt(double noundef %22) #3
  %24 = fdiv double 1.000000e+00, %23
  %25 = getelementptr inbounds nuw %"struct.std::gamma_distribution<>::param_type", ptr %4, i32 0, i32 3
  store double %24, ptr %25, align 8
  ret void
}

; Function Attrs: mustprogress uwtable
define linkonce_odr void @_ZNSt19normal_distributionIdEC2Ev(ptr noundef nonnull align 8 dereferenceable(25) %0) unnamed_addr #4 comdat align 2 {
  %2 = alloca ptr, align 8
  store ptr %0, ptr %2, align 8
  %3 = load ptr, ptr %2, align 8
  call void @_ZNSt19normal_distributionIdEC2Edd(ptr noundef nonnull align 8 dereferenceable(25) %3, double noundef 0.000000e+00, double noundef 1.000000e+00)
  ret void
}

; Function Attrs: mustprogress uwtable
define linkonce_odr void @_ZNSt18gamma_distributionIdE10param_typeC2Edd(ptr noundef nonnull align 8 dereferenceable(32) %0, double noundef %1, double noundef %2) unnamed_addr #4 comdat align 2 {
  %4 = alloca ptr, align 8
  %5 = alloca double, align 8
  %6 = alloca double, align 8
  store ptr %0, ptr %4, align 8
  store double %1, ptr %5, align 8
  store double %2, ptr %6, align 8
  %7 = load ptr, ptr %4, align 8
  %8 = getelementptr inbounds nuw %"struct.std::gamma_distribution<>::param_type", ptr %7, i32 0, i32 0
  %9 = load double, ptr %5, align 8
  store double %9, ptr %8, align 8
  %10 = getelementptr inbounds nuw %"struct.std::gamma_distribution<>::param_type", ptr %7, i32 0, i32 1
  %11 = load double, ptr %6, align 8
  store double %11, ptr %10, align 8
  br label %12

12:                                               ; preds = %3
  br label %13

13:                                               ; preds = %12
  call void @_ZNSt18gamma_distributionIdE10param_type13_M_initializeEv(ptr noundef nonnull align 8 dereferenceable(32) %7)
  ret void
}

; Function Attrs: mustprogress uwtable
define linkonce_odr void @_ZNSt18gamma_distributionIdEC2Edd(ptr noundef nonnull align 8 dereferenceable(64) %0, double noundef %1, double noundef %2) unnamed_addr #4 comdat align 2 {
  %4 = alloca ptr, align 8
  %5 = alloca double, align 8
  %6 = alloca double, align 8
  store ptr %0, ptr %4, align 8
  store double %1, ptr %5, align 8
  store double %2, ptr %6, align 8
  %7 = load ptr, ptr %4, align 8
  %8 = getelementptr inbounds nuw %"class.std::gamma_distribution", ptr %7, i32 0, i32 0
  %9 = load double, ptr %5, align 8
  %10 = load double, ptr %6, align 8
  call void @_ZNSt18gamma_distributionIdE10param_typeC2Edd(ptr noundef nonnull align 8 dereferenceable(32) %8, double noundef %9, double noundef %10)
  %11 = getelementptr inbounds nuw %"class.std::gamma_distribution", ptr %7, i32 0, i32 1
  call void @_ZNSt19normal_distributionIdEC2Ev(ptr noundef nonnull align 8 dereferenceable(25) %11)
  ret void
}

; Function Attrs: mustprogress uwtable
define void @_ZN10open_spiel22GetFlatDirichletPolicyERKNS_4GameEii(ptr dead_on_unwind noalias writable sret(%"class.open_spiel::TabularPolicy") align 8 %0, ptr noundef nonnull align 8 dereferenceable(280) %1, i32 noundef %2, i32 noundef %3) #4 {
  %5 = alloca ptr, align 8
  %6 = alloca ptr, align 8
  %7 = alloca i32, align 4
  %8 = alloca i32, align 4
  %9 = alloca %"class.std::gamma_distribution", align 8
  store ptr %0, ptr %5, align 8
  store ptr %1, ptr %6, align 8
  store i32 %2, ptr %7, align 4
  store i32 %3, ptr %8, align 4
  call void @_ZNSt18gamma_distributionIdEC2Edd(ptr noundef nonnull align 8 dereferenceable(64) %9, double noundef 1.000000e+00, double noundef 1.000000e+00)
  %10 = load ptr, ptr %6, align 8
  %11 = load i32, ptr %7, align 4
  %12 = load i32, ptr %8, align 4
  call void @_ZN10open_spiel12SamplePolicyISt18gamma_distributionIdEEENS_13TabularPolicyERKNS_4GameEiRT_i(ptr dead_on_unwind writable sret(%"class.open_spiel::TabularPolicy") align 8 %0, ptr noundef nonnull align 8 dereferenceable(280) %10, i32 noundef %11, ptr noundef nonnull align 8 dereferenceable(64) %9, i32 noundef %12)
  ret void
}