; Function Attrs: mustprogress uwtable
define void @_ZN10open_spiel22GetFlatDirichletPolicyERKNS_4GameEii(ptr dead_on_unwind noalias writable sret(%"class.open_spiel::TabularPolicy") align 8 %0, ptr noundef nonnull align 8 dereferenceable(280) %1, i32 noundef %2, i32 noundef %3) local_unnamed_addr #3 {
  %5 = alloca %"class.std::gamma_distribution", align 8
  store double 1.000000e+00, ptr %5, align 8
  %6 = getelementptr inbounds nuw i8, ptr %5, i64 8
  store double 1.000000e+00, ptr %6, align 8
  %7 = getelementptr inbounds nuw i8, ptr %5, i64 16
  store double 1.000000e+00, ptr %7, align 8
  %8 = getelementptr inbounds nuw i8, ptr %5, i64 24
  store double 0x3FDA20BD700C2C3D, ptr %8, align 8
  %9 = getelementptr inbounds nuw i8, ptr %5, i64 32
  store double 0.000000e+00, ptr %9, align 8
  %10 = getelementptr inbounds i8, ptr %5, i64 40
  store double 1.000000e+00, ptr %10, align 8
  %11 = getelementptr inbounds i8, ptr %5, i64 48
  store double 0.000000e+00, ptr %11, align 8
  %12 = getelementptr inbounds i8, ptr %5, i64 56
  store i8 0, ptr %12, align 8
  call void @_ZN10open_spiel12SamplePolicyISt18gamma_distributionIdEEENS_13TabularPolicyERKNS_4GameEiRT_i(ptr dead_on_unwind writable sret(%"class.open_spiel::TabularPolicy") align 8 %0, ptr noundef nonnull align 8 dereferenceable(280) %1, i32 noundef %2, ptr noundef nonnull align 8 dereferenceable(64) %5, i32 noundef %3)
  ret void
}